; Function Attrs: nounwind uwtable
define hidden void @_glfwGetMonitorPosX11(ptr noundef readonly captures(none) %0, ptr noundef writeonly captures(address_is_null) %1, ptr noundef writeonly captures(address_is_null) %2) local_unnamed_addr #0 {
  %4 = load i32, ptr getelementptr inbounds nuw (i8, ptr @_glfw, i64 142064), align 8, !tbaa !3
  %5 = icmp eq i32 %4, 0
  %6 = load i32, ptr getelementptr inbounds nuw (i8, ptr @_glfw, i64 142100), align 4
  %7 = icmp ne i32 %6, 0
  %or.cond = select i1 %5, i1 true, i1 %7
  br i1 %or.cond, label %30, label %8

8:                                                ; preds = %3
  %9 = load ptr, ptr getelementptr inbounds nuw (i8, ptr @_glfw, i64 142184), align 8, !tbaa !94
  %10 = load ptr, ptr getelementptr inbounds nuw (i8, ptr @_glfw, i64 137840), align 8, !tbaa !95
  %11 = load i64, ptr getelementptr inbounds nuw (i8, ptr @_glfw, i64 137856), align 8, !tbaa !96
  %12 = tail call ptr %9(ptr noundef %10, i64 noundef %11) #9
  %13 = load ptr, ptr getelementptr inbounds nuw (i8, ptr @_glfw, i64 142160), align 8, !tbaa !127
  %14 = load ptr, ptr getelementptr inbounds nuw (i8, ptr @_glfw, i64 137840), align 8, !tbaa !95
  %15 = getelementptr inbounds nuw i8, ptr %0, i64 296
  %16 = load i64, ptr %15, align 8, !tbaa !133
  %17 = tail call ptr %13(ptr noundef %14, ptr noundef %12, i64 noundef %16) #9
  %.not = icmp eq ptr %17, null
  br i1 %.not, label %28, label %18

18:                                               ; preds = %8
  %.not14 = icmp eq ptr %1, null
  br i1 %.not14, label %22, label %19

19:                                               ; preds = %18
  %20 = getelementptr inbounds nuw i8, ptr %17, i64 8
  %21 = load i32, ptr %20, align 8, !tbaa !134
  store i32 %21, ptr %1, align 4, !tbaa !93
  br label %22

22:                                               ; preds = %19, %18
  %.not15 = icmp eq ptr %2, null
  br i1 %.not15, label %26, label %23

23:                                               ; preds = %22
  %24 = getelementptr inbounds nuw i8, ptr %17, i64 12
  %25 = load i32, ptr %24, align 4, !tbaa !138
  store i32 %25, ptr %2, align 4, !tbaa !93
  br label %26

26:                                               ; preds = %23, %22
  %27 = load ptr, ptr getelementptr inbounds nuw (i8, ptr @_glfw, i64 142112), align 8, !tbaa !142
  tail call void %27(ptr noundef nonnull %17) #9
  br label %28

28:                                               ; preds = %26, %8
  %29 = load ptr, ptr getelementptr inbounds nuw (i8, ptr @_glfw, i64 142136), align 8, !tbaa !106
  tail call void %29(ptr noundef %12) #9
  br label %30

30:                                               ; preds = %28, %3
  ret void
}